target datalayout = "e-m:e-p270:32:32-p271:32:32-p272:64:64-i64:64-i128:128-f80:128-n8:16:32:64-S128"
target triple = "x86_64-pc-linux-gnu"

%struct.AVFormatContext = type { ptr, ptr, ptr, ptr, ptr, i32, i32, ptr, i32, ptr, i32, ptr, ptr, i64, i64, i64, i32, i32, i32, i64, i64, ptr, i32, i32, ptr, i32, i32, i32, i32, ptr, i64, i32, i32, %struct.AVIOInterruptCB, i32, i32, i32, i32, i64, i32, i32, i32, i32, i32, i32, i32, i32, i32, i32, i32, i32, i64, i32, i32, i32, i32, i32, ptr, ptr, ptr, ptr, i32, ptr, ptr, ptr, ptr, i32, ptr, ptr, i64, ptr, ptr, ptr, i64 }
%struct.AVIOInterruptCB = type { ptr, ptr }
%struct.MOVTrack = type { i32, i32, i32, i32, i64, i64, i32, i64, i64, i64, i32, i32, i32, i32, i32, i32, i32, ptr, ptr, i32, i32, i32, ptr, ptr, ptr, i32, i32, i32, i32, i32, i64, i64, i64, i32, i64, i32, i32, ptr, i32, i64, i32, i64, i32, i32, %struct.HintSampleQueue, ptr, ptr, i64, i32, i32, i32, ptr, i32, %struct.anon, ptr, %struct.MOVMuxCencContext, [256 x i32], i32, i32, i32, %struct.PacketList, ptr, i32, i32, ptr }
%struct.HintSampleQueue = type { i32, i32, ptr }
%struct.anon = type { i32, i32, i32, i32, i32, i32, i32 }
%struct.MOVMuxCencContext = type { ptr, ptr, i64, i64, i32, i32, i16, i64, ptr, i64, ptr, i32, i32, ptr, %struct.CodedBitstreamFragment }
%struct.CodedBitstreamFragment = type { ptr, i64, i64, ptr, i32, i32, ptr }
%struct.PacketList = type { ptr, ptr }
%struct.HintSample = type { ptr, i32, i32, i32, i32 }

; Function Attrs: nounwind uwtable
define internal void @sample_queue_free(ptr noundef %0) #0 {
  %2 = alloca ptr, align 8
  %3 = alloca i32, align 4
  store ptr %0, ptr %2, align 8, !tbaa !82
  call void @llvm.lifetime.start.p0(i64 4, ptr %3) #6
  store i32 0, ptr %3, align 4, !tbaa !9
  br label %4

4:                                                ; preds = %29, %1
  %5 = load i32, ptr %3, align 4, !tbaa !9
  %6 = load ptr, ptr %2, align 8, !tbaa !82
  %7 = getelementptr inbounds nuw %struct.HintSampleQueue, ptr %6, i32 0, i32 1
  %8 = load i32, ptr %7, align 4, !tbaa !85
  %9 = icmp slt i32 %5, %8
  br i1 %9, label %10, label %32

10:                                               ; preds = %4
  %11 = load ptr, ptr %2, align 8, !tbaa !82
  %12 = getelementptr inbounds nuw %struct.HintSampleQueue, ptr %11, i32 0, i32 2
  %13 = load ptr, ptr %12, align 8, !tbaa !84
  %14 = load i32, ptr %3, align 4, !tbaa !9
  %15 = sext i32 %14 to i64
  %16 = getelementptr inbounds %struct.HintSample, ptr %13, i64 %15
  %17 = getelementptr inbounds nuw %struct.HintSample, ptr %16, i32 0, i32 4
  %18 = load i32, ptr %17, align 4, !tbaa !93
  %19 = icmp ne i32 %18, 0
  br i1 %19, label %20, label %28

20:                                               ; preds = %10
  %21 = load ptr, ptr %2, align 8, !tbaa !82
  %22 = getelementptr inbounds nuw %struct.HintSampleQueue, ptr %21, i32 0, i32 2
  %23 = load ptr, ptr %22, align 8, !tbaa !84
  %24 = load i32, ptr %3, align 4, !tbaa !9
  %25 = sext i32 %24 to i64
  %26 = getelementptr inbounds %struct.HintSample, ptr %23, i64 %25
  %27 = getelementptr inbounds nuw %struct.HintSample, ptr %26, i32 0, i32 0
  call void @av_freep(ptr noundef %27)
  br label %28

28:                                               ; preds = %20, %10
  br label %29

29:                                               ; preds = %28
  %30 = load i32, ptr %3, align 4, !tbaa !9
  %31 = add nsw i32 %30, 1
  store i32 %31, ptr %3, align 4, !tbaa !9
  br label %4, !llvm.loop !105

32:                                               ; preds = %4
  %33 = load ptr, ptr %2, align 8, !tbaa !82
  %34 = getelementptr inbounds nuw %struct.HintSampleQueue, ptr %33, i32 0, i32 2
  call void @av_freep(ptr noundef %34)
  %35 = load ptr, ptr %2, align 8, !tbaa !82
  %36 = getelementptr inbounds nuw %struct.HintSampleQueue, ptr %35, i32 0, i32 1
  store i32 0, ptr %36, align 4, !tbaa !85
  %37 = load ptr, ptr %2, align 8, !tbaa !82
  %38 = getelementptr inbounds nuw %struct.HintSampleQueue, ptr %37, i32 0, i32 0
  store i32 0, ptr %38, align 8, !tbaa !86
  call void @llvm.lifetime.end.p0(i64 4, ptr %3) #6
  ret void
}

; Function Attrs: nounwind uwtable
define void @ff_mov_close_hinting(ptr noundef %0) #0 {
  %2 = alloca ptr, align 8
  %3 = alloca ptr, align 8
  %4 = alloca i32, align 4
  store ptr %0, ptr %2, align 8, !tbaa !34
  call void @llvm.lifetime.start.p0(i64 8, ptr %3) #6
  %5 = load ptr, ptr %2, align 8, !tbaa !34
  %6 = getelementptr inbounds nuw %struct.MOVTrack, ptr %5, i32 0, i32 37
  %7 = load ptr, ptr %6, align 8, !tbaa !65
  store ptr %7, ptr %3, align 8, !tbaa !4
  %8 = load ptr, ptr %2, align 8, !tbaa !34
  %9 = getelementptr inbounds nuw %struct.MOVTrack, ptr %8, i32 0, i32 18
  call void @avcodec_parameters_free(ptr noundef %9)
  %10 = load ptr, ptr %2, align 8, !tbaa !34
  %11 = getelementptr inbounds nuw %struct.MOVTrack, ptr %10, i32 0, i32 44
  call void @sample_queue_free(ptr noundef %11)
  %12 = load ptr, ptr %3, align 8, !tbaa !4
  %13 = icmp ne ptr %12, null
  br i1 %13, label %15, label %14

14:                                               ; preds = %1
  store i32 1, ptr %4, align 4
  br label %27

15:                                               ; preds = %1
  %16 = load ptr, ptr %3, align 8, !tbaa !4
  %17 = getelementptr inbounds nuw %struct.AVFormatContext, ptr %16, i32 0, i32 4
  %18 = load ptr, ptr %17, align 8, !tbaa !75
  %19 = icmp ne ptr %18, null
  br i1 %19, label %20, label %25

20:                                               ; preds = %15
  %21 = load ptr, ptr %3, align 8, !tbaa !4
  %22 = call i32 @av_write_trailer(ptr noundef %21)
  %23 = load ptr, ptr %3, align 8, !tbaa !4
  %24 = getelementptr inbounds nuw %struct.AVFormatContext, ptr %23, i32 0, i32 4
  call void @ffio_free_dyn_buf(ptr noundef %24)
  br label %25

25:                                               ; preds = %20, %15
  %26 = load ptr, ptr %3, align 8, !tbaa !4
  call void @avformat_free_context(ptr noundef %26)
  store i32 0, ptr %4, align 4
  br label %27

27:                                               ; preds = %25, %14
  call void @llvm.lifetime.end.p0(i64 8, ptr %3) #6
  %28 = load i32, ptr %4, align 4
  switch i32 %28, label %30 [
    i32 0, label %29
    i32 1, label %29
  ]

29:                                               ; preds = %27, %27
  ret void

30:                                               ; preds = %27
  unreachable
}