; Function Attrs: nounwind uwtable
define void @ff_mov_close_hinting(ptr noundef %0) local_unnamed_addr #0 {
  %2 = getelementptr inbounds nuw i8, ptr %0, i64 224
  %3 = load ptr, ptr %2, align 8, !tbaa !60
  %4 = getelementptr inbounds nuw i8, ptr %0, i64 104
  tail call void @avcodec_parameters_free(ptr noundef nonnull %4) #5
  %5 = getelementptr inbounds nuw i8, ptr %0, i64 272
  %6 = getelementptr inbounds nuw i8, ptr %0, i64 276
  %7 = load i32, ptr %6, align 4, !tbaa !72
  %8 = icmp sgt i32 %7, 0
  br i1 %8, label %.lr.ph.i, label %sample_queue_free.exit

.lr.ph.i:                                         ; preds = %1
  %9 = getelementptr inbounds nuw i8, ptr %0, i64 280
  br label %10

10:                                               ; preds = %17, %.lr.ph.i
  %11 = phi i32 [ %7, %.lr.ph.i ], [ %18, %17 ]
  %indvars.iv.i = phi i64 [ 0, %.lr.ph.i ], [ %indvars.iv.next.i, %17 ]
  %12 = load ptr, ptr %9, align 8, !tbaa !70
  %13 = getelementptr inbounds nuw %struct.HintSample, ptr %12, i64 %indvars.iv.i
  %14 = getelementptr inbounds nuw i8, ptr %13, i64 20
  %15 = load i32, ptr %14, align 4, !tbaa !80
  %.not.i = icmp eq i32 %15, 0
  br i1 %.not.i, label %17, label %16

16:                                               ; preds = %10
  tail call void @av_freep(ptr noundef nonnull %13) #5
  %.pre.i = load i32, ptr %6, align 4, !tbaa !72
  br label %17

17:                                               ; preds = %16, %10
  %18 = phi i32 [ %11, %10 ], [ %.pre.i, %16 ]
  %indvars.iv.next.i = add nuw nsw i64 %indvars.iv.i, 1
  %19 = sext i32 %18 to i64
  %20 = icmp slt i64 %indvars.iv.next.i, %19
  br i1 %20, label %10, label %sample_queue_free.exit, !llvm.loop !96

sample_queue_free.exit:                           ; preds = %17, %1
  %21 = getelementptr inbounds nuw i8, ptr %0, i64 280
  tail call void @av_freep(ptr noundef nonnull %21) #5
  store i32 0, ptr %6, align 4, !tbaa !72
  store i32 0, ptr %5, align 8, !tbaa !71
  %.not = icmp eq ptr %3, null
  br i1 %.not, label %28, label %22

22:                                               ; preds = %sample_queue_free.exit
  %23 = getelementptr inbounds nuw i8, ptr %3, i64 32
  %24 = load ptr, ptr %23, align 8, !tbaa !69
  %.not8 = icmp eq ptr %24, null
  br i1 %.not8, label %27, label %25

25:                                               ; preds = %22
  %26 = tail call i32 @av_write_trailer(ptr noundef nonnull %3) #5
  tail call void @ffio_free_dyn_buf(ptr noundef nonnull %23) #5
  br label %27

27:                                               ; preds = %25, %22
  tail call void @avformat_free_context(ptr noundef nonnull %3) #5
  br label %28

28:                                               ; preds = %sample_queue_free.exit, %27
  ret void
}